target datalayout = "e-m:e-p270:32:32-p271:32:32-p272:64:64-i64:64-i128:128-f80:128-n8:16:32:64-S128"
target triple = "x86_64-pc-linux-gnu"

%struct.GCRef = type { i64 }
%struct.jit_State = type { %struct.GCtrace, ptr, ptr, ptr, ptr, ptr, ptr, i32, i32, i32, i8, i8, %struct.IRType1, i8, %struct.FoldState, ptr, i32, i32, i32, i32, i32, i32, i32, [1 x i32], [5 x %union.TValue], [3 x %union.TValue], ptr, i32, i32, i32, i32, ptr, ptr, i32, i32, i8, ptr, i32, i32, i16, [101 x i16], [258 x i32], [15 x i32], [16 x ptr], [64 x %struct.HotPenalty], i32, [16 x %struct.BPropEntry], i32, %struct.ScEvEntry, ptr, i32, i32, i32, ptr, i32, i32, ptr, ptr, ptr, i64, i64, %union.TValue, ptr, i32, i32 }
%struct.GCtrace = type { %struct.GCRef, i8, i8, i16, i32, i32, %struct.GCRef, ptr, i32, i32, ptr, ptr, %struct.GCRef, %struct.MRef, i32, i32, ptr, i32, i16, i16, i16, i16, i16, i16, i16, i8, i8, i8, i8 }
%struct.MRef = type { i64 }
%struct.IRType1 = type { i8 }
%struct.FoldState = type { %union.IRIns, [2 x %union.IRIns], [2 x %union.IRIns] }
%union.IRIns = type { %struct.GCRef }
%struct.HotPenalty = type { %struct.MRef, i16, i16 }
%struct.BPropEntry = type { i16, i16, i32 }
%struct.ScEvEntry = type { %struct.MRef, i16, i16, i16, i16, %struct.IRType1, i8 }
%union.TValue = type { i64 }
%struct.anon.2 = type { i16, i16, i16, i16 }
%struct.RecordFFData = type { ptr, i64, i32 }
%struct.lua_State = type { %struct.GCRef, i8, i8, i8, i8, %struct.MRef, %struct.GCRef, ptr, ptr, %struct.MRef, %struct.MRef, %struct.GCRef, %struct.GCRef, ptr, i32 }
%struct.anon.3 = type { i32, %struct.IRType1, i8, i8, i8 }

; Function Attrs: nounwind uwtable
define internal i64 @results_wanted(ptr noundef %0) #0 {
  %2 = alloca i64, align 8
  %3 = alloca ptr, align 8
  %4 = alloca ptr, align 8
  %5 = alloca i32, align 4
  store ptr %0, ptr %3, align 8, !tbaa !4
  call void @llvm.lifetime.start.p0(i64 8, ptr %4) #9
  %6 = load ptr, ptr %3, align 8, !tbaa !4
  %7 = getelementptr inbounds nuw %struct.jit_State, ptr %6, i32 0, i32 2
  %8 = load ptr, ptr %7, align 8, !tbaa !37
  %9 = getelementptr inbounds nuw %struct.lua_State, ptr %8, i32 0, i32 7
  %10 = load ptr, ptr %9, align 8, !tbaa !38
  %11 = getelementptr inbounds %union.TValue, ptr %10, i64 -1
  store ptr %11, ptr %4, align 8, !tbaa !11
  %12 = load ptr, ptr %4, align 8, !tbaa !11
  %13 = load i64, ptr %12, align 8, !tbaa !13
  %14 = and i64 %13, 3
  %15 = icmp eq i64 %14, 0
  br i1 %15, label %16, label %25

16:                                               ; preds = %1
  %17 = load ptr, ptr %4, align 8, !tbaa !11
  %18 = load i64, ptr %17, align 8, !tbaa !13
  %19 = inttoptr i64 %18 to ptr
  %20 = getelementptr inbounds i32, ptr %19, i64 -1
  %21 = load i32, ptr %20, align 4, !tbaa !9
  %22 = lshr i32 %21, 24
  %23 = zext i32 %22 to i64
  %24 = sub nsw i64 %23, 1
  store i64 %24, ptr %2, align 8
  store i32 1, ptr %5, align 4
  br label %26

25:                                               ; preds = %1
  store i64 -1, ptr %2, align 8
  store i32 1, ptr %5, align 4
  br label %26

26:                                               ; preds = %25, %16
  call void @llvm.lifetime.end.p0(i64 8, ptr %4) #9
  %27 = load i64, ptr %2, align 8
  ret i64 %27
}

; Function Attrs: alwaysinline nounwind uwtable
define internal void @lj_ir_set_(ptr noundef %0, i16 noundef zeroext %1, i16 noundef zeroext %2, i16 noundef zeroext %3) #1 {
  %5 = alloca ptr, align 8
  %6 = alloca i16, align 2
  %7 = alloca i16, align 2
  %8 = alloca i16, align 2
  store ptr %0, ptr %5, align 8, !tbaa !4
  store i16 %1, ptr %6, align 2, !tbaa !14
  store i16 %2, ptr %7, align 2, !tbaa !14
  store i16 %3, ptr %8, align 2, !tbaa !14
  %9 = load i16, ptr %6, align 2, !tbaa !14
  %10 = load ptr, ptr %5, align 8, !tbaa !4
  %11 = getelementptr inbounds nuw %struct.jit_State, ptr %10, i32 0, i32 14
  %12 = getelementptr inbounds nuw %struct.FoldState, ptr %11, i32 0, i32 0
  %13 = getelementptr inbounds nuw %struct.anon.2, ptr %12, i32 0, i32 2
  store i16 %9, ptr %13, align 4, !tbaa !13
  %14 = load i16, ptr %7, align 2, !tbaa !14
  %15 = load ptr, ptr %5, align 8, !tbaa !4
  %16 = getelementptr inbounds nuw %struct.jit_State, ptr %15, i32 0, i32 14
  %17 = getelementptr inbounds nuw %struct.FoldState, ptr %16, i32 0, i32 0
  %18 = getelementptr inbounds nuw %struct.anon.2, ptr %17, i32 0, i32 0
  store i16 %14, ptr %18, align 8, !tbaa !13
  %19 = load i16, ptr %8, align 2, !tbaa !14
  %20 = load ptr, ptr %5, align 8, !tbaa !4
  %21 = getelementptr inbounds nuw %struct.jit_State, ptr %20, i32 0, i32 14
  %22 = getelementptr inbounds nuw %struct.FoldState, ptr %21, i32 0, i32 0
  %23 = getelementptr inbounds nuw %struct.anon.2, ptr %22, i32 0, i32 1
  store i16 %19, ptr %23, align 2, !tbaa !13
  ret void
}

; Function Attrs: nounwind uwtable
define internal void @recff_io_write(ptr noundef %0, ptr noundef %1) #0 {
  %3 = alloca ptr, align 8
  %4 = alloca ptr, align 8
  %5 = alloca i32, align 4
  %6 = alloca i32, align 4
  %7 = alloca i32, align 4
  %8 = alloca i32, align 4
  %9 = alloca i64, align 8
  %10 = alloca i32, align 4
  %11 = alloca i32, align 4
  %12 = alloca i32, align 4
  %13 = alloca ptr, align 8
  %14 = alloca i32, align 4
  %15 = alloca i32, align 4
  store ptr %0, ptr %3, align 8, !tbaa !4
  store ptr %1, ptr %4, align 8, !tbaa !46
  call void @llvm.lifetime.start.p0(i64 4, ptr %5) #9
  call void @llvm.lifetime.start.p0(i64 4, ptr %6) #9
  %16 = load ptr, ptr %3, align 8, !tbaa !4
  %17 = load ptr, ptr %4, align 8, !tbaa !46
  %18 = getelementptr inbounds nuw %struct.RecordFFData, ptr %17, i32 0, i32 2
  %19 = load i32, ptr %18, align 8, !tbaa !34
  %20 = call i32 @recff_io_fp(ptr noundef %16, ptr noundef %5, i32 noundef %19)
  store i32 %20, ptr %6, align 4, !tbaa !9
  call void @llvm.lifetime.start.p0(i64 4, ptr %7) #9
  %21 = load ptr, ptr %3, align 8, !tbaa !4
  %22 = call i32 @lj_ir_kint(ptr noundef %21, i32 noundef 0)
  store i32 %22, ptr %7, align 4, !tbaa !9
  call void @llvm.lifetime.start.p0(i64 4, ptr %8) #9
  %23 = load ptr, ptr %3, align 8, !tbaa !4
  %24 = call i32 @lj_ir_kint(ptr noundef %23, i32 noundef 1)
  store i32 %24, ptr %8, align 4, !tbaa !9
  call void @llvm.lifetime.start.p0(i64 8, ptr %9) #9
  %25 = load ptr, ptr %4, align 8, !tbaa !46
  %26 = getelementptr inbounds nuw %struct.RecordFFData, ptr %25, i32 0, i32 2
  %27 = load i32, ptr %26, align 8, !tbaa !34
  %28 = icmp eq i32 %27, 0
  %29 = select i1 %28, i32 1, i32 0
  %30 = sext i32 %29 to i64
  store i64 %30, ptr %9, align 8, !tbaa !60
  br label %31

31:                                               ; preds = %145, %2
  %32 = load ptr, ptr %3, align 8, !tbaa !4
  %33 = getelementptr inbounds nuw %struct.jit_State, ptr %32, i32 0, i32 6
  %34 = load ptr, ptr %33, align 8, !tbaa !41
  %35 = load i64, ptr %9, align 8, !tbaa !60
  %36 = getelementptr inbounds i32, ptr %34, i64 %35
  %37 = load i32, ptr %36, align 4, !tbaa !9
  %38 = icmp ne i32 %37, 0
  br i1 %38, label %39, label %148

39:                                               ; preds = %31
  call void @llvm.lifetime.start.p0(i64 4, ptr %10) #9
  %40 = load ptr, ptr %3, align 8, !tbaa !4
  %41 = load ptr, ptr %3, align 8, !tbaa !4
  %42 = getelementptr inbounds nuw %struct.jit_State, ptr %41, i32 0, i32 6
  %43 = load ptr, ptr %42, align 8, !tbaa !41
  %44 = load i64, ptr %9, align 8, !tbaa !60
  %45 = getelementptr inbounds i32, ptr %43, i64 %44
  %46 = load i32, ptr %45, align 4, !tbaa !9
  %47 = call i32 @lj_ir_tostr(ptr noundef %40, i32 noundef %46)
  store i32 %47, ptr %10, align 4, !tbaa !9
  call void @llvm.lifetime.start.p0(i64 4, ptr %11) #9
  %48 = load ptr, ptr %3, align 8, !tbaa !4
  %49 = load i32, ptr %10, align 4, !tbaa !9
  %50 = trunc i32 %49 to i16
  %51 = load i32, ptr %7, align 4, !tbaa !9
  %52 = trunc i32 %51 to i16
  call void @lj_ir_set_(ptr noundef %48, i16 noundef zeroext 16393, i16 noundef zeroext %50, i16 noundef zeroext %52)
  %53 = load ptr, ptr %3, align 8, !tbaa !4
  %54 = call i32 @lj_opt_fold(ptr noundef %53)
  store i32 %54, ptr %11, align 4, !tbaa !9
  call void @llvm.lifetime.start.p0(i64 4, ptr %12) #9
  %55 = load ptr, ptr %3, align 8, !tbaa !4
  %56 = load i32, ptr %10, align 4, !tbaa !9
  %57 = trunc i32 %56 to i16
  call void @lj_ir_set_(ptr noundef %55, i16 noundef zeroext 17683, i16 noundef zeroext %57, i16 noundef zeroext 0)
  %58 = load ptr, ptr %3, align 8, !tbaa !4
  %59 = call i32 @lj_opt_fold(ptr noundef %58)
  store i32 %59, ptr %12, align 4, !tbaa !9
  %60 = load i32, ptr %12, align 4, !tbaa !9
  %61 = trunc i32 %60 to i16
  %62 = zext i16 %61 to i32
  %63 = icmp slt i32 %62, 32768
  br i1 %63, label %64, label %125

64:                                               ; preds = %39
  %65 = load ptr, ptr %3, align 8, !tbaa !4
  %66 = getelementptr inbounds nuw %struct.jit_State, ptr %65, i32 0, i32 0
  %67 = getelementptr inbounds nuw %struct.GCtrace, ptr %66, i32 0, i32 7
  %68 = load ptr, ptr %67, align 8, !tbaa !59
  %69 = load i32, ptr %12, align 4, !tbaa !9
  %70 = trunc i32 %69 to i16
  %71 = zext i16 %70 to i64
  %72 = getelementptr inbounds nuw %union.IRIns, ptr %68, i64 %71
  %73 = load i32, ptr %72, align 8, !tbaa !13
  %74 = icmp eq i32 %73, 1
  br i1 %74, label %75, label %125

75:                                               ; preds = %64
  call void @llvm.lifetime.start.p0(i64 8, ptr %13) #9
  %76 = load ptr, ptr %3, align 8, !tbaa !4
  %77 = getelementptr inbounds nuw %struct.jit_State, ptr %76, i32 0, i32 0
  %78 = getelementptr inbounds nuw %struct.GCtrace, ptr %77, i32 0, i32 7
  %79 = load ptr, ptr %78, align 8, !tbaa !59
  %80 = load i32, ptr %10, align 4, !tbaa !9
  %81 = trunc i32 %80 to i16
  %82 = zext i16 %81 to i64
  %83 = getelementptr inbounds nuw %union.IRIns, ptr %79, i64 %82
  store ptr %83, ptr %13, align 8, !tbaa !76
  call void @llvm.lifetime.start.p0(i64 4, ptr %14) #9
  %84 = load ptr, ptr %13, align 8, !tbaa !76
  %85 = getelementptr inbounds nuw %struct.anon.3, ptr %84, i32 0, i32 2
  %86 = load i8, ptr %85, align 1, !tbaa !13
  %87 = zext i8 %86 to i32
  %88 = icmp eq i32 %87, 93
  br i1 %88, label %89, label %100

89:                                               ; preds = %75
  %90 = load ptr, ptr %13, align 8, !tbaa !76
  %91 = getelementptr inbounds nuw %struct.anon.2, ptr %90, i32 0, i32 1
  %92 = load i16, ptr %91, align 2, !tbaa !13
  %93 = zext i16 %92 to i32
  %94 = icmp eq i32 %93, 2
  br i1 %94, label %95, label %100

95:                                               ; preds = %89
  %96 = load ptr, ptr %13, align 8, !tbaa !76
  %97 = getelementptr inbounds nuw %struct.anon.2, ptr %96, i32 0, i32 0
  %98 = load i16, ptr %97, align 8, !tbaa !13
  %99 = zext i16 %98 to i32
  br label %106

100:                                              ; preds = %89, %75
  %101 = load ptr, ptr %3, align 8, !tbaa !4
  %102 = load i32, ptr %11, align 4, !tbaa !9
  %103 = trunc i32 %102 to i16
  call void @lj_ir_set_(ptr noundef %101, i16 noundef zeroext 17936, i16 noundef zeroext %103, i16 noundef zeroext 1)
  %104 = load ptr, ptr %3, align 8, !tbaa !4
  %105 = call i32 @lj_opt_fold(ptr noundef %104)
  br label %106

106:                                              ; preds = %100, %95
  %107 = phi i32 [ %99, %95 ], [ %105, %100 ]
  store i32 %107, ptr %14, align 4, !tbaa !9
  %108 = load ptr, ptr %3, align 8, !tbaa !4
  %109 = load i32, ptr %14, align 4, !tbaa !9
  %110 = load i32, ptr %6, align 4, !tbaa !9
  %111 = call i32 (ptr, i32, ...) @lj_ir_call(ptr noundef %108, i32 noundef 56, i32 noundef %109, i32 noundef %110)
  store i32 %111, ptr %14, align 4, !tbaa !9
  %112 = load ptr, ptr %3, align 8, !tbaa !4
  %113 = call i64 @results_wanted(ptr noundef %112)
  %114 = icmp ne i64 %113, 0
  br i1 %114, label %115, label %124

115:                                              ; preds = %106
  %116 = load ptr, ptr %3, align 8, !tbaa !4
  %117 = load i32, ptr %14, align 4, !tbaa !9
  %118 = trunc i32 %117 to i16
  %119 = load ptr, ptr %3, align 8, !tbaa !4
  %120 = call i32 @lj_ir_kint(ptr noundef %119, i32 noundef -1)
  %121 = trunc i32 %120 to i16
  call void @lj_ir_set_(ptr noundef %116, i16 noundef zeroext 2451, i16 noundef zeroext %118, i16 noundef zeroext %121)
  %122 = load ptr, ptr %3, align 8, !tbaa !4
  %123 = call i32 @lj_opt_fold(ptr noundef %122)
  br label %124

124:                                              ; preds = %115, %106
  call void @llvm.lifetime.end.p0(i64 4, ptr %14) #9
  call void @llvm.lifetime.end.p0(i64 8, ptr %13) #9
  br label %144

125:                                              ; preds = %64, %39
  call void @llvm.lifetime.start.p0(i64 4, ptr %15) #9
  %126 = load ptr, ptr %3, align 8, !tbaa !4
  %127 = load i32, ptr %11, align 4, !tbaa !9
  %128 = load i32, ptr %8, align 4, !tbaa !9
  %129 = load i32, ptr %12, align 4, !tbaa !9
  %130 = load i32, ptr %6, align 4, !tbaa !9
  %131 = call i32 (ptr, i32, ...) @lj_ir_call(ptr noundef %126, i32 noundef 57, i32 noundef %127, i32 noundef %128, i32 noundef %129, i32 noundef %130)
  store i32 %131, ptr %15, align 4, !tbaa !9
  %132 = load ptr, ptr %3, align 8, !tbaa !4
  %133 = call i64 @results_wanted(ptr noundef %132)
  %134 = icmp ne i64 %133, 0
  br i1 %134, label %135, label %143

135:                                              ; preds = %125
  %136 = load ptr, ptr %3, align 8, !tbaa !4
  %137 = load i32, ptr %15, align 4, !tbaa !9
  %138 = trunc i32 %137 to i16
  %139 = load i32, ptr %12, align 4, !tbaa !9
  %140 = trunc i32 %139 to i16
  call void @lj_ir_set_(ptr noundef %136, i16 noundef zeroext 2195, i16 noundef zeroext %138, i16 noundef zeroext %140)
  %141 = load ptr, ptr %3, align 8, !tbaa !4
  %142 = call i32 @lj_opt_fold(ptr noundef %141)
  br label %143

143:                                              ; preds = %135, %125
  call void @llvm.lifetime.end.p0(i64 4, ptr %15) #9
  br label %144

144:                                              ; preds = %143, %124
  call void @llvm.lifetime.end.p0(i64 4, ptr %12) #9
  call void @llvm.lifetime.end.p0(i64 4, ptr %11) #9
  call void @llvm.lifetime.end.p0(i64 4, ptr %10) #9
  br label %145

145:                                              ; preds = %144
  %146 = load i64, ptr %9, align 8, !tbaa !60
  %147 = add nsw i64 %146, 1
  store i64 %147, ptr %9, align 8, !tbaa !60
  br label %31, !llvm.loop !77

148:                                              ; preds = %31
  %149 = load ptr, ptr %3, align 8, !tbaa !4
  %150 = getelementptr inbounds nuw %struct.jit_State, ptr %149, i32 0, i32 6
  %151 = load ptr, ptr %150, align 8, !tbaa !41
  %152 = getelementptr inbounds i32, ptr %151, i64 0
  store i32 33587197, ptr %152, align 4, !tbaa !9
  call void @llvm.lifetime.end.p0(i64 8, ptr %9) #9
  call void @llvm.lifetime.end.p0(i64 4, ptr %8) #9
  call void @llvm.lifetime.end.p0(i64 4, ptr %7) #9
  call void @llvm.lifetime.end.p0(i64 4, ptr %6) #9
  call void @llvm.lifetime.end.p0(i64 4, ptr %5) #9
  ret void
}