; Function Attrs: nounwind uwtable
define internal void @recff_io_write(ptr noundef %0, ptr noundef readonly captures(none) %1) #0 {
  %3 = alloca i32, align 4
  call void @llvm.lifetime.start.p0(i64 4, ptr nonnull %3) #9
  %4 = getelementptr inbounds nuw i8, ptr %1, i64 16
  %5 = load i32, ptr %4, align 8, !tbaa !29
  %6 = call fastcc i32 @recff_io_fp(ptr noundef %0, ptr noundef %3, i32 noundef %5)
  %7 = tail call i32 @lj_ir_kint(ptr noundef %0, i32 noundef 0) #9
  %8 = tail call i32 @lj_ir_kint(ptr noundef %0, i32 noundef 1) #9
  %9 = load i32, ptr %4, align 8, !tbaa !29
  %10 = icmp eq i32 %9, 0
  %11 = zext i1 %10 to i64
  %12 = getelementptr inbounds nuw i8, ptr %0, i64 160
  %13 = load ptr, ptr %12, align 8, !tbaa !37
  %14 = getelementptr inbounds nuw i32, ptr %13, i64 %11
  %15 = load i32, ptr %14, align 4, !tbaa !39
  %.not61 = icmp eq i32 %15, 0
  br i1 %.not61, label %._crit_edge, label %.lr.ph

.lr.ph:                                           ; preds = %2
  %16 = trunc i32 %7 to i16
  %17 = getelementptr inbounds nuw i8, ptr %0, i64 184
  %18 = getelementptr inbounds nuw i8, ptr %0, i64 188
  %19 = getelementptr inbounds nuw i8, ptr %0, i64 186
  %20 = getelementptr inbounds nuw i8, ptr %0, i64 32
  %21 = getelementptr i8, ptr %0, i64 128
  br label %22

22:                                               ; preds = %.lr.ph, %72
  %23 = phi i32 [ %15, %.lr.ph ], [ %76, %72 ]
  %.062 = phi i64 [ %11, %.lr.ph ], [ %73, %72 ]
  %24 = tail call i32 @lj_ir_tostr(ptr noundef nonnull %0, i32 noundef %23) #9
  %25 = trunc i32 %24 to i16
  store i16 16393, ptr %18, align 4, !tbaa !4
  store i16 %25, ptr %17, align 8, !tbaa !4
  store i16 %16, ptr %19, align 2, !tbaa !4
  %26 = tail call i32 @lj_opt_fold(ptr noundef nonnull %0) #9
  store i16 17683, ptr %18, align 4, !tbaa !4
  store i16 %25, ptr %17, align 8, !tbaa !4
  store i16 0, ptr %19, align 2, !tbaa !4
  %27 = tail call i32 @lj_opt_fold(ptr noundef nonnull %0) #9
  %28 = and i32 %27, 32768
  %.not48.not = icmp eq i32 %28, 0
  br i1 %.not48.not, label %29, label %62

29:                                               ; preds = %22
  %30 = load ptr, ptr %20, align 8, !tbaa !55
  %.mask = and i32 %27, 32767
  %31 = zext nneg i32 %.mask to i64
  %32 = getelementptr inbounds nuw %union.IRIns, ptr %30, i64 %31
  %33 = load i32, ptr %32, align 8, !tbaa !4
  %34 = icmp eq i32 %33, 1
  br i1 %34, label %35, label %62

35:                                               ; preds = %29
  %.mask50 = and i32 %24, 65535
  %36 = zext nneg i32 %.mask50 to i64
  %37 = getelementptr inbounds nuw %union.IRIns, ptr %30, i64 %36
  %38 = getelementptr inbounds nuw i8, ptr %37, i64 5
  %39 = load i8, ptr %38, align 1, !tbaa !4
  %40 = icmp eq i8 %39, 93
  br i1 %40, label %41, label %48

41:                                               ; preds = %35
  %42 = getelementptr inbounds nuw i8, ptr %37, i64 2
  %43 = load i16, ptr %42, align 2, !tbaa !4
  %44 = icmp eq i16 %43, 2
  br i1 %44, label %45, label %48

45:                                               ; preds = %41
  %46 = load i16, ptr %37, align 8, !tbaa !4
  %47 = zext i16 %46 to i32
  br label %51

48:                                               ; preds = %41, %35
  %49 = trunc i32 %26 to i16
  store i16 17936, ptr %18, align 4, !tbaa !4
  store i16 %49, ptr %17, align 8, !tbaa !4
  store i16 1, ptr %19, align 2, !tbaa !4
  %50 = tail call i32 @lj_opt_fold(ptr noundef nonnull %0) #9
  br label %51

51:                                               ; preds = %48, %45
  %52 = phi i32 [ %47, %45 ], [ %50, %48 ]
  %53 = tail call i32 (ptr, i32, ...) @lj_ir_call(ptr noundef nonnull %0, i32 noundef 56, i32 noundef %52, i32 noundef %6) #9
  %.val = load ptr, ptr %21, align 8, !tbaa !33
  %54 = getelementptr i8, ptr %.val, i64 32
  %.val.val = load ptr, ptr %54, align 8, !tbaa !34
  %55 = getelementptr i8, ptr %.val.val, i64 -8
  %.val.val.val = load i64, ptr %55, align 8, !tbaa !4
  %56 = and i64 %.val.val.val, 3
  %57 = icmp eq i64 %56, 0
  br i1 %57, label %results_wanted.exit, label %results_wanted.exit.thread

results_wanted.exit:                              ; preds = %51
  %58 = inttoptr i64 %.val.val.val to ptr
  %59 = getelementptr inbounds i8, ptr %58, i64 -4
  %60 = load i32, ptr %59, align 4, !tbaa !39
  %.mask60 = and i32 %60, -16777216
  %.not51 = icmp eq i32 %.mask60, 16777216
  br i1 %.not51, label %72, label %results_wanted.exit.thread

results_wanted.exit.thread:                       ; preds = %51, %results_wanted.exit
  %61 = tail call i32 @lj_ir_kint(ptr noundef nonnull %0, i32 noundef -1) #9
  br label %.sink.split

62:                                               ; preds = %29, %22
  %63 = tail call i32 (ptr, i32, ...) @lj_ir_call(ptr noundef nonnull %0, i32 noundef 57, i32 noundef %26, i32 noundef %8, i32 noundef %27, i32 noundef %6) #9
  %.val52 = load ptr, ptr %21, align 8, !tbaa !33
  %64 = getelementptr i8, ptr %.val52, i64 32
  %.val52.val = load ptr, ptr %64, align 8, !tbaa !34
  %65 = getelementptr i8, ptr %.val52.val, i64 -8
  %.val52.val.val = load i64, ptr %65, align 8, !tbaa !4
  %66 = and i64 %.val52.val.val, 3
  %67 = icmp eq i64 %66, 0
  br i1 %67, label %results_wanted.exit54, label %.sink.split

results_wanted.exit54:                            ; preds = %62
  %68 = inttoptr i64 %.val52.val.val to ptr
  %69 = getelementptr inbounds i8, ptr %68, i64 -4
  %70 = load i32, ptr %69, align 4, !tbaa !39
  %.mask59 = and i32 %70, -16777216
  %.not49 = icmp eq i32 %.mask59, 16777216
  br i1 %.not49, label %72, label %.sink.split

.sink.split:                                      ; preds = %results_wanted.exit54, %62, %results_wanted.exit.thread
  %.sink66 = phi i16 [ 2451, %results_wanted.exit.thread ], [ 2195, %62 ], [ 2195, %results_wanted.exit54 ]
  %.sink65.in = phi i32 [ %53, %results_wanted.exit.thread ], [ %63, %62 ], [ %63, %results_wanted.exit54 ]
  %.sink.in = phi i32 [ %61, %results_wanted.exit.thread ], [ %27, %62 ], [ %27, %results_wanted.exit54 ]
  %.sink = trunc i32 %.sink.in to i16
  %.sink65 = trunc i32 %.sink65.in to i16
  store i16 %.sink66, ptr %18, align 4, !tbaa !4
  store i16 %.sink65, ptr %17, align 8, !tbaa !4
  store i16 %.sink, ptr %19, align 2, !tbaa !4
  %71 = tail call i32 @lj_opt_fold(ptr noundef nonnull %0) #9
  br label %72

72:                                               ; preds = %.sink.split, %results_wanted.exit54, %results_wanted.exit
  %73 = add nuw nsw i64 %.062, 1
  %74 = load ptr, ptr %12, align 8, !tbaa !37
  %75 = getelementptr inbounds nuw i32, ptr %74, i64 %73
  %76 = load i32, ptr %75, align 4, !tbaa !39
  %.not = icmp eq i32 %76, 0
  br i1 %.not, label %._crit_edge, label %22, !llvm.loop !66

._crit_edge:                                      ; preds = %72, %2
  %.lcssa = phi ptr [ %13, %2 ], [ %74, %72 ]
  store i32 33587197, ptr %.lcssa, align 4, !tbaa !39
  call void @llvm.lifetime.end.p0(i64 4, ptr nonnull %3) #9
  ret void
}